target datalayout = "e-m:e-p270:32:32-p271:32:32-p272:64:64-i64:64-i128:128-f80:128-n8:16:32:64-S128"
target triple = "x86_64-pc-linux-gnu"

%struct.Ver_Man_t_ = type { i32, i32, i32, ptr, ptr, i32, ptr, ptr, ptr, ptr, i32, i32, [2000 x i8], ptr, ptr, ptr, ptr }

@.str = private unnamed_addr constant [8 x i8] c"%s: %s\0A\00", align 1
@.str.1 = private unnamed_addr constant [18 x i8] c"%s (line %d): %s\0A\00", align 1

; Function Attrs: nounwind uwtable
define internal void @Ver_ParseFreeData(ptr noundef %0) #0 {
  %2 = alloca ptr, align 8
  store ptr %0, ptr %2, align 8, !tbaa !12
  %3 = load ptr, ptr %2, align 8, !tbaa !12
  %4 = getelementptr inbounds nuw %struct.Ver_Man_t_, ptr %3, i32 0, i32 7
  %5 = load ptr, ptr %4, align 8, !tbaa !24
  %6 = icmp ne ptr %5, null
  br i1 %6, label %7, label %13

7:                                                ; preds = %1
  %8 = load ptr, ptr %2, align 8, !tbaa !12
  %9 = getelementptr inbounds nuw %struct.Ver_Man_t_, ptr %8, i32 0, i32 7
  %10 = load ptr, ptr %9, align 8, !tbaa !24
  call void @Abc_DesFree(ptr noundef %10, ptr noundef null)
  %11 = load ptr, ptr %2, align 8, !tbaa !12
  %12 = getelementptr inbounds nuw %struct.Ver_Man_t_, ptr %11, i32 0, i32 7
  store ptr null, ptr %12, align 8, !tbaa !24
  br label %13

13:                                               ; preds = %7, %1
  ret void
}

; Function Attrs: nounwind uwtable
define void @Ver_ParsePrintErrorMessage(ptr noundef %0) #0 {
  %2 = alloca ptr, align 8
  store ptr %0, ptr %2, align 8, !tbaa !12
  %3 = load ptr, ptr %2, align 8, !tbaa !12
  %4 = getelementptr inbounds nuw %struct.Ver_Man_t_, ptr %3, i32 0, i32 11
  store i32 1, ptr %4, align 4, !tbaa !56
  %5 = load ptr, ptr %2, align 8, !tbaa !12
  %6 = getelementptr inbounds nuw %struct.Ver_Man_t_, ptr %5, i32 0, i32 10
  %7 = load i32, ptr %6, align 8, !tbaa !41
  %8 = icmp ne i32 %7, 0
  br i1 %8, label %9, label %20

9:                                                ; preds = %1
  %10 = load ptr, ptr %2, align 8, !tbaa !12
  %11 = getelementptr inbounds nuw %struct.Ver_Man_t_, ptr %10, i32 0, i32 9
  %12 = load ptr, ptr %11, align 8, !tbaa !30
  %13 = load ptr, ptr %2, align 8, !tbaa !12
  %14 = getelementptr inbounds nuw %struct.Ver_Man_t_, ptr %13, i32 0, i32 3
  %15 = load ptr, ptr %14, align 8, !tbaa !27
  %16 = load ptr, ptr %2, align 8, !tbaa !12
  %17 = getelementptr inbounds nuw %struct.Ver_Man_t_, ptr %16, i32 0, i32 12
  %18 = getelementptr inbounds [2000 x i8], ptr %17, i64 0, i64 0
  %19 = call i32 (ptr, ptr, ...) @fprintf(ptr noundef %12, ptr noundef @.str, ptr noundef %15, ptr noundef %18) #10
  br label %35

20:                                               ; preds = %1
  %21 = load ptr, ptr %2, align 8, !tbaa !12
  %22 = getelementptr inbounds nuw %struct.Ver_Man_t_, ptr %21, i32 0, i32 9
  %23 = load ptr, ptr %22, align 8, !tbaa !30
  %24 = load ptr, ptr %2, align 8, !tbaa !12
  %25 = getelementptr inbounds nuw %struct.Ver_Man_t_, ptr %24, i32 0, i32 3
  %26 = load ptr, ptr %25, align 8, !tbaa !27
  %27 = load ptr, ptr %2, align 8, !tbaa !12
  %28 = getelementptr inbounds nuw %struct.Ver_Man_t_, ptr %27, i32 0, i32 4
  %29 = load ptr, ptr %28, align 8, !tbaa !28
  %30 = call i32 @Ver_StreamGetLineNumber(ptr noundef %29)
  %31 = load ptr, ptr %2, align 8, !tbaa !12
  %32 = getelementptr inbounds nuw %struct.Ver_Man_t_, ptr %31, i32 0, i32 12
  %33 = getelementptr inbounds [2000 x i8], ptr %32, i64 0, i64 0
  %34 = call i32 (ptr, ptr, ...) @fprintf(ptr noundef %23, ptr noundef @.str.1, ptr noundef %26, i32 noundef %30, ptr noundef %33) #10
  br label %35

35:                                               ; preds = %20, %9
  %36 = load ptr, ptr %2, align 8, !tbaa !12
  call void @Ver_ParseFreeData(ptr noundef %36)
  ret void
}