; Function Attrs: nounwind uwtable
define void @Ver_ParsePrintErrorMessage(ptr noundef initializes((76, 80)) %0) local_unnamed_addr #0 {
  %2 = getelementptr inbounds nuw i8, ptr %0, i64 76
  store i32 1, ptr %2, align 4, !tbaa !43
  %3 = getelementptr inbounds nuw i8, ptr %0, i64 72
  %4 = load i32, ptr %3, align 8, !tbaa !44
  %.not = icmp eq i32 %4, 0
  %5 = getelementptr inbounds nuw i8, ptr %0, i64 64
  %6 = load ptr, ptr %5, align 8, !tbaa !19
  %7 = getelementptr inbounds nuw i8, ptr %0, i64 16
  %8 = load ptr, ptr %7, align 8, !tbaa !3
  br i1 %.not, label %12, label %9

9:                                                ; preds = %1
  %10 = getelementptr inbounds nuw i8, ptr %0, i64 80
  %11 = tail call i32 (ptr, ptr, ...) @fprintf(ptr noundef %6, ptr noundef nonnull @.str, ptr noundef %8, ptr noundef nonnull %10) #20
  br label %18

12:                                               ; preds = %1
  %13 = getelementptr inbounds nuw i8, ptr %0, i64 24
  %14 = load ptr, ptr %13, align 8, !tbaa !17
  %15 = tail call i32 @Ver_StreamGetLineNumber(ptr noundef %14) #20
  %16 = getelementptr inbounds nuw i8, ptr %0, i64 80
  %17 = tail call i32 (ptr, ptr, ...) @fprintf(ptr noundef %6, ptr noundef nonnull @.str.1, ptr noundef %8, i32 noundef %15, ptr noundef nonnull %16) #20
  br label %18

18:                                               ; preds = %12, %9
  %19 = getelementptr inbounds nuw i8, ptr %0, i64 48
  %20 = load ptr, ptr %19, align 8, !tbaa !33
  %.not.i = icmp eq ptr %20, null
  br i1 %.not.i, label %Ver_ParseFreeData.exit, label %21

21:                                               ; preds = %18
  tail call void @Abc_DesFree(ptr noundef nonnull %20, ptr noundef null) #20
  store ptr null, ptr %19, align 8, !tbaa !33
  br label %Ver_ParseFreeData.exit

Ver_ParseFreeData.exit:                           ; preds = %18, %21
  ret void
}